target datalayout = "e-m:e-p270:32:32-p271:32:32-p272:64:64-i64:64-i128:128-f80:128-n8:16:32:64-S128"
target triple = "x86_64-pc-linux-gnu"

@lu = internal global ptr null, align 8
@ps = internal global ptr null, align 8

; Function Attrs: nounwind uwtable
define void @lu_solve(ptr noundef %0, ptr noundef %1, i32 noundef %2) #0 {
  %4 = alloca ptr, align 8
  %5 = alloca ptr, align 8
  %6 = alloca i32, align 4
  %7 = alloca i32, align 4
  %8 = alloca i32, align 4
  %9 = alloca double, align 8
  store ptr %0, ptr %4, align 8, !tbaa !12
  store ptr %1, ptr %5, align 8, !tbaa !12
  store i32 %2, ptr %6, align 4, !tbaa !8
  call void @llvm.lifetime.start.p0(i64 4, ptr %7) #9
  call void @llvm.lifetime.start.p0(i64 4, ptr %8) #9
  call void @llvm.lifetime.start.p0(i64 8, ptr %9) #9
  store i32 0, ptr %7, align 4, !tbaa !8
  br label %10

10:                                               ; preds = %59, %3
  %11 = load i32, ptr %7, align 4, !tbaa !8
  %12 = load i32, ptr %6, align 4, !tbaa !8
  %13 = icmp slt i32 %11, %12
  br i1 %13, label %14, label %62

14:                                               ; preds = %10
  store double 0.000000e+00, ptr %9, align 8, !tbaa !14
  store i32 0, ptr %8, align 4, !tbaa !8
  br label %15

15:                                               ; preds = %40, %14
  %16 = load i32, ptr %8, align 4, !tbaa !8
  %17 = load i32, ptr %7, align 4, !tbaa !8
  %18 = icmp slt i32 %16, %17
  br i1 %18, label %19, label %43

19:                                               ; preds = %15
  %20 = load ptr, ptr @lu, align 8, !tbaa !3
  %21 = load ptr, ptr @ps, align 8, !tbaa !10
  %22 = load i32, ptr %7, align 4, !tbaa !8
  %23 = sext i32 %22 to i64
  %24 = getelementptr inbounds i32, ptr %21, i64 %23
  %25 = load i32, ptr %24, align 4, !tbaa !8
  %26 = sext i32 %25 to i64
  %27 = getelementptr inbounds ptr, ptr %20, i64 %26
  %28 = load ptr, ptr %27, align 8, !tbaa !12
  %29 = load i32, ptr %8, align 4, !tbaa !8
  %30 = sext i32 %29 to i64
  %31 = getelementptr inbounds double, ptr %28, i64 %30
  %32 = load double, ptr %31, align 8, !tbaa !14
  %33 = load ptr, ptr %4, align 8, !tbaa !12
  %34 = load i32, ptr %8, align 4, !tbaa !8
  %35 = sext i32 %34 to i64
  %36 = getelementptr inbounds double, ptr %33, i64 %35
  %37 = load double, ptr %36, align 8, !tbaa !14
  %38 = load double, ptr %9, align 8, !tbaa !14
  %39 = call double @llvm.fmuladd.f64(double %32, double %37, double %38)
  store double %39, ptr %9, align 8, !tbaa !14
  br label %40

40:                                               ; preds = %19
  %41 = load i32, ptr %8, align 4, !tbaa !8
  %42 = add nsw i32 %41, 1
  store i32 %42, ptr %8, align 4, !tbaa !8
  br label %15, !llvm.loop !28

43:                                               ; preds = %15
  %44 = load ptr, ptr %5, align 8, !tbaa !12
  %45 = load ptr, ptr @ps, align 8, !tbaa !10
  %46 = load i32, ptr %7, align 4, !tbaa !8
  %47 = sext i32 %46 to i64
  %48 = getelementptr inbounds i32, ptr %45, i64 %47
  %49 = load i32, ptr %48, align 4, !tbaa !8
  %50 = sext i32 %49 to i64
  %51 = getelementptr inbounds double, ptr %44, i64 %50
  %52 = load double, ptr %51, align 8, !tbaa !14
  %53 = load double, ptr %9, align 8, !tbaa !14
  %54 = fsub double %52, %53
  %55 = load ptr, ptr %4, align 8, !tbaa !12
  %56 = load i32, ptr %7, align 4, !tbaa !8
  %57 = sext i32 %56 to i64
  %58 = getelementptr inbounds double, ptr %55, i64 %57
  store double %54, ptr %58, align 8, !tbaa !14
  br label %59

59:                                               ; preds = %43
  %60 = load i32, ptr %7, align 4, !tbaa !8
  %61 = add nsw i32 %60, 1
  store i32 %61, ptr %7, align 4, !tbaa !8
  br label %10, !llvm.loop !29

62:                                               ; preds = %10
  %63 = load i32, ptr %6, align 4, !tbaa !8
  %64 = sub nsw i32 %63, 1
  store i32 %64, ptr %7, align 4, !tbaa !8
  br label %65

65:                                               ; preds = %125, %62
  %66 = load i32, ptr %7, align 4, !tbaa !8
  %67 = icmp sge i32 %66, 0
  br i1 %67, label %68, label %128

68:                                               ; preds = %65
  store double 0.000000e+00, ptr %9, align 8, !tbaa !14
  %69 = load i32, ptr %7, align 4, !tbaa !8
  %70 = add nsw i32 %69, 1
  store i32 %70, ptr %8, align 4, !tbaa !8
  br label %71

71:                                               ; preds = %96, %68
  %72 = load i32, ptr %8, align 4, !tbaa !8
  %73 = load i32, ptr %6, align 4, !tbaa !8
  %74 = icmp slt i32 %72, %73
  br i1 %74, label %75, label %99

75:                                               ; preds = %71
  %76 = load ptr, ptr @lu, align 8, !tbaa !3
  %77 = load ptr, ptr @ps, align 8, !tbaa !10
  %78 = load i32, ptr %7, align 4, !tbaa !8
  %79 = sext i32 %78 to i64
  %80 = getelementptr inbounds i32, ptr %77, i64 %79
  %81 = load i32, ptr %80, align 4, !tbaa !8
  %82 = sext i32 %81 to i64
  %83 = getelementptr inbounds ptr, ptr %76, i64 %82
  %84 = load ptr, ptr %83, align 8, !tbaa !12
  %85 = load i32, ptr %8, align 4, !tbaa !8
  %86 = sext i32 %85 to i64
  %87 = getelementptr inbounds double, ptr %84, i64 %86
  %88 = load double, ptr %87, align 8, !tbaa !14
  %89 = load ptr, ptr %4, align 8, !tbaa !12
  %90 = load i32, ptr %8, align 4, !tbaa !8
  %91 = sext i32 %90 to i64
  %92 = getelementptr inbounds double, ptr %89, i64 %91
  %93 = load double, ptr %92, align 8, !tbaa !14
  %94 = load double, ptr %9, align 8, !tbaa !14
  %95 = call double @llvm.fmuladd.f64(double %88, double %93, double %94)
  store double %95, ptr %9, align 8, !tbaa !14
  br label %96

96:                                               ; preds = %75
  %97 = load i32, ptr %8, align 4, !tbaa !8
  %98 = add nsw i32 %97, 1
  store i32 %98, ptr %8, align 4, !tbaa !8
  br label %71, !llvm.loop !30

99:                                               ; preds = %71
  %100 = load ptr, ptr %4, align 8, !tbaa !12
  %101 = load i32, ptr %7, align 4, !tbaa !8
  %102 = sext i32 %101 to i64
  %103 = getelementptr inbounds double, ptr %100, i64 %102
  %104 = load double, ptr %103, align 8, !tbaa !14
  %105 = load double, ptr %9, align 8, !tbaa !14
  %106 = fsub double %104, %105
  %107 = load ptr, ptr @lu, align 8, !tbaa !3
  %108 = load ptr, ptr @ps, align 8, !tbaa !10
  %109 = load i32, ptr %7, align 4, !tbaa !8
  %110 = sext i32 %109 to i64
  %111 = getelementptr inbounds i32, ptr %108, i64 %110
  %112 = load i32, ptr %111, align 4, !tbaa !8
  %113 = sext i32 %112 to i64
  %114 = getelementptr inbounds ptr, ptr %107, i64 %113
  %115 = load ptr, ptr %114, align 8, !tbaa !12
  %116 = load i32, ptr %7, align 4, !tbaa !8
  %117 = sext i32 %116 to i64
  %118 = getelementptr inbounds double, ptr %115, i64 %117
  %119 = load double, ptr %118, align 8, !tbaa !14
  %120 = fdiv double %106, %119
  %121 = load ptr, ptr %4, align 8, !tbaa !12
  %122 = load i32, ptr %7, align 4, !tbaa !8
  %123 = sext i32 %122 to i64
  %124 = getelementptr inbounds double, ptr %121, i64 %123
  store double %120, ptr %124, align 8, !tbaa !14
  br label %125

125:                                              ; preds = %99
  %126 = load i32, ptr %7, align 4, !tbaa !8
  %127 = add nsw i32 %126, -1
  store i32 %127, ptr %7, align 4, !tbaa !8
  br label %65, !llvm.loop !31

128:                                              ; preds = %65
  call void @llvm.lifetime.end.p0(i64 8, ptr %9) #9
  call void @llvm.lifetime.end.p0(i64 4, ptr %8) #9
  call void @llvm.lifetime.end.p0(i64 4, ptr %7) #9
  ret void
}