; Function Attrs: nofree norecurse nosync nounwind memory(read, argmem: readwrite, inaccessiblemem: none) uwtable
define void @lu_solve(ptr noundef captures(none) %0, ptr noundef readonly captures(none) %1, i32 noundef %2) local_unnamed_addr #4 {
  %4 = icmp sgt i32 %2, 0
  br i1 %4, label %.preheader40.lr.ph, label %._crit_edge52

.preheader40.lr.ph:                               ; preds = %3
  %5 = load ptr, ptr @lu, align 8
  %6 = load ptr, ptr @ps, align 8
  %wide.trip.count58 = zext nneg i32 %2 to i64
  br label %.preheader40

.preheader40:                                     ; preds = %.preheader40.lr.ph, %._crit_edge
  %indvars.iv55 = phi i64 [ 0, %.preheader40.lr.ph ], [ %indvars.iv.next56, %._crit_edge ]
  %.not = icmp eq i64 %indvars.iv55, 0
  br i1 %.not, label %.preheader40.._crit_edge_crit_edge, label %.lr.ph

.preheader40.._crit_edge_crit_edge:               ; preds = %.preheader40
  %.pre = load i32, ptr %6, align 4, !tbaa !16
  %.pre71 = sext i32 %.pre to i64
  br label %._crit_edge

.lr.ph:                                           ; preds = %.preheader40
  %7 = getelementptr inbounds nuw i32, ptr %6, i64 %indvars.iv55
  %8 = load i32, ptr %7, align 4, !tbaa !16
  %9 = sext i32 %8 to i64
  %10 = getelementptr inbounds ptr, ptr %5, i64 %9
  %11 = load ptr, ptr %10, align 8, !tbaa !12
  br label %16

.preheader.lr.ph:                                 ; preds = %._crit_edge
  %12 = load ptr, ptr @lu, align 8
  %13 = load ptr, ptr @ps, align 8
  %14 = zext nneg i32 %2 to i64
  %15 = zext nneg i32 %2 to i64
  br label %.preheader

16:                                               ; preds = %.lr.ph, %16
  %indvars.iv = phi i64 [ 0, %.lr.ph ], [ %indvars.iv.next, %16 ]
  %.042 = phi double [ 0.000000e+00, %.lr.ph ], [ %21, %16 ]
  %17 = getelementptr inbounds nuw double, ptr %11, i64 %indvars.iv
  %18 = load double, ptr %17, align 8, !tbaa !14
  %19 = getelementptr inbounds nuw double, ptr %0, i64 %indvars.iv
  %20 = load double, ptr %19, align 8, !tbaa !14
  %21 = tail call double @llvm.fmuladd.f64(double %18, double %20, double %.042)
  %indvars.iv.next = add nuw nsw i64 %indvars.iv, 1
  %exitcond.not = icmp eq i64 %indvars.iv.next, %indvars.iv55
  br i1 %exitcond.not, label %._crit_edge, label %16, !llvm.loop !25

._crit_edge:                                      ; preds = %16, %.preheader40.._crit_edge_crit_edge
  %.pre-phi = phi i64 [ %.pre71, %.preheader40.._crit_edge_crit_edge ], [ %9, %16 ]
  %.0.lcssa = phi double [ 0.000000e+00, %.preheader40.._crit_edge_crit_edge ], [ %21, %16 ]
  %22 = getelementptr inbounds double, ptr %1, i64 %.pre-phi
  %23 = load double, ptr %22, align 8, !tbaa !14
  %24 = fsub double %23, %.0.lcssa
  %25 = getelementptr inbounds nuw double, ptr %0, i64 %indvars.iv55
  store double %24, ptr %25, align 8, !tbaa !14
  %indvars.iv.next56 = add nuw nsw i64 %indvars.iv55, 1
  %exitcond59.not = icmp eq i64 %indvars.iv.next56, %wide.trip.count58
  br i1 %exitcond59.not, label %.preheader.lr.ph, label %.preheader40, !llvm.loop !26

.preheader:                                       ; preds = %.preheader.lr.ph, %._crit_edge47
  %indvars.iv60 = phi i64 [ %14, %.preheader.lr.ph ], [ %indvars.iv.next61, %._crit_edge47 ]
  %indvars.iv.next61 = add nsw i64 %indvars.iv60, -1
  %26 = icmp slt i64 %indvars.iv60, %15
  %27 = getelementptr inbounds nuw i32, ptr %13, i64 %indvars.iv.next61
  %28 = load i32, ptr %27, align 4, !tbaa !16
  %29 = sext i32 %28 to i64
  %30 = getelementptr inbounds ptr, ptr %12, i64 %29
  %31 = load ptr, ptr %30, align 8, !tbaa !12
  br i1 %26, label %.lr.ph46, label %._crit_edge47

.lr.ph46:                                         ; preds = %.preheader, %.lr.ph46
  %indvars.iv62 = phi i64 [ %indvars.iv.next63, %.lr.ph46 ], [ %indvars.iv60, %.preheader ]
  %.145 = phi double [ %36, %.lr.ph46 ], [ 0.000000e+00, %.preheader ]
  %32 = getelementptr inbounds nuw double, ptr %31, i64 %indvars.iv62
  %33 = load double, ptr %32, align 8, !tbaa !14
  %34 = getelementptr inbounds nuw double, ptr %0, i64 %indvars.iv62
  %35 = load double, ptr %34, align 8, !tbaa !14
  %36 = tail call double @llvm.fmuladd.f64(double %33, double %35, double %.145)
  %indvars.iv.next63 = add nuw nsw i64 %indvars.iv62, 1
  %37 = trunc nuw i64 %indvars.iv.next63 to i32
  %38 = icmp sgt i32 %2, %37
  br i1 %38, label %.lr.ph46, label %._crit_edge47, !llvm.loop !27

._crit_edge47:                                    ; preds = %.lr.ph46, %.preheader
  %.1.lcssa = phi double [ 0.000000e+00, %.preheader ], [ %36, %.lr.ph46 ]
  %39 = getelementptr inbounds nuw double, ptr %0, i64 %indvars.iv.next61
  %40 = load double, ptr %39, align 8, !tbaa !14
  %41 = fsub double %40, %.1.lcssa
  %42 = getelementptr inbounds nuw double, ptr %31, i64 %indvars.iv.next61
  %43 = load double, ptr %42, align 8, !tbaa !14
  %44 = fdiv double %41, %43
  store double %44, ptr %39, align 8, !tbaa !14
  %45 = icmp sgt i64 %indvars.iv60, 1
  br i1 %45, label %.preheader, label %._crit_edge52, !llvm.loop !28

._crit_edge52:                                    ; preds = %._crit_edge47, %3
  ret void
}